; Function Attrs: mustprogress uwtable
define dso_local void @_ZN17ContainerResource14preWriteAllResEPj(ptr noundef nonnull readonly align 8 captures(none) dereferenceable(72) %0, ptr noundef %1) local_unnamed_addr #7 align 2 {
  %3 = getelementptr inbounds nuw i8, ptr %0, i64 64
  %.05 = load ptr, ptr %3, align 8, !tbaa !74
  %.not6 = icmp eq ptr %.05, null
  br i1 %.not6, label %._crit_edge, label %.lr.ph

._crit_edge:                                      ; preds = %_ZN9SResource8preWriteEPj.exit, %2
  ret void

.lr.ph:                                           ; preds = %2, %_ZN9SResource8preWriteEPj.exit
  %.07 = phi ptr [ %.0, %_ZN9SResource8preWriteEPj.exit ], [ %.05, %2 ]
  %4 = getelementptr inbounds nuw i8, ptr %.07, i64 12
  %5 = load i32, ptr %4, align 4, !tbaa !20
  %.not.i = icmp eq i32 %5, -1
  br i1 %.not.i, label %6, label %_ZN9SResource8preWriteEPj.exit

6:                                                ; preds = %.lr.ph
  %7 = load ptr, ptr %.07, align 8, !tbaa !9
  %8 = getelementptr inbounds nuw i8, ptr %7, i64 32
  %9 = load ptr, ptr %8, align 8
  tail call void %9(ptr noundef nonnull align 8 dereferenceable(56) %.07, ptr noundef %1)
  %10 = load i32, ptr %1, align 4, !tbaa !7
  %11 = and i32 %10, 3
  %.not.i.i = icmp eq i32 %11, 0
  %12 = sub nuw nsw i32 4, %11
  %13 = select i1 %.not.i.i, i32 0, i32 %12
  %14 = add i32 %13, %10
  store i32 %14, ptr %1, align 4, !tbaa !7
  br label %_ZN9SResource8preWriteEPj.exit

_ZN9SResource8preWriteEPj.exit:                   ; preds = %.lr.ph, %6
  %15 = getelementptr inbounds nuw i8, ptr %.07, i64 32
  %.0 = load ptr, ptr %15, align 8, !tbaa !74
  %.not = icmp eq ptr %.0, null
  br i1 %.not, label %._crit_edge, label %.lr.ph, !llvm.loop !93
}